; Function Attrs: mustprogress uwtable
define dso_local noundef zeroext i1 @_ZNK4Luau18SubtypingReasoningeqERKS0_(ptr noundef nonnull align 8 dereferenceable(52) %0, ptr noundef nonnull align 8 dereferenceable(52) %1) local_unnamed_addr #4 align 2 {
  %3 = tail call noundef zeroext i1 @_ZNK4Luau8TypePath4PatheqERKS1_(ptr noundef nonnull align 8 dereferenceable(24) %0, ptr noundef nonnull align 8 dereferenceable(24) %1)
  br i1 %3, label %4, label %14

4:                                                ; preds = %2
  %5 = getelementptr inbounds nuw i8, ptr %0, i64 24
  %6 = getelementptr inbounds nuw i8, ptr %1, i64 24
  %7 = tail call noundef zeroext i1 @_ZNK4Luau8TypePath4PatheqERKS1_(ptr noundef nonnull align 8 dereferenceable(24) %5, ptr noundef nonnull align 8 dereferenceable(24) %6)
  br i1 %7, label %8, label %14

8:                                                ; preds = %4
  %9 = getelementptr inbounds nuw i8, ptr %0, i64 48
  %10 = load i32, ptr %9, align 8, !tbaa !19
  %11 = getelementptr inbounds nuw i8, ptr %1, i64 48
  %12 = load i32, ptr %11, align 8, !tbaa !19
  %13 = icmp eq i32 %10, %12
  br label %14

14:                                               ; preds = %8, %4, %2
  %15 = phi i1 [ false, %4 ], [ false, %2 ], [ %13, %8 ]
  ret i1 %15
}